; ModuleID = '12/1503.c'
source_filename = "12/1503.c"
target datalayout = "e-m:e-p270:32:32-p271:32:32-p272:64:64-i64:64-f80:128-n8:16:32:64-S128"
target triple = "x86_64-pc-linux-gnu"

@.str = private unnamed_addr constant [3 x i8] c"%d\00", align 1
@.str.1 = private unnamed_addr constant [3 x i8] c"%c\00", align 1
@.str.2 = private unnamed_addr constant [4 x i8] c"%d\0A\00", align 1

; Function Attrs: noinline nounwind uwtable
define dso_local i32 @main() #0 {
  %1 = alloca i32, align 4
  %2 = alloca [100 x i32], align 16
  %3 = alloca i32, align 4
  %4 = alloca i32, align 4
  %5 = alloca i8, align 1
  %6 = alloca i32, align 4
  %7 = alloca i32, align 4
  store i32 0, i32* %1, align 4
  %8 = bitcast [100 x i32]* %2 to i8*
  call void @llvm.memset.p0i8.i64(i8* align 16 %8, i8 0, i64 400, i1 false)
  store i32 0, i32* %3, align 4
  store i32 0, i32* %4, align 4
  br label %9

9:                                                ; preds = %79, %0
  %10 = getelementptr inbounds [100 x i32], [100 x i32]* %2, i64 0, i64 0
  %11 = load i32, i32* %10, align 16
  %12 = icmp ne i32 %11, -1
  br i1 %12, label %13, label %80

13:                                               ; preds = %9
  br label %14

14:                                               ; preds = %13, %25
  %15 = load i32, i32* %3, align 4
  %16 = add nsw i32 %15, 1
  store i32 %16, i32* %3, align 4
  %17 = sext i32 %15 to i64
  %18 = getelementptr inbounds [100 x i32], [100 x i32]* %2, i64 0, i64 %17
  %19 = call i32 (i8*, ...) @__isoc99_scanf(i8* getelementptr inbounds ([3 x i8], [3 x i8]* @.str, i64 0, i64 0), i32* %18)
  %20 = call i32 (i8*, ...) @__isoc99_scanf(i8* getelementptr inbounds ([3 x i8], [3 x i8]* @.str.1, i64 0, i64 0), i8* %5)
  %21 = load i8, i8* %5, align 1
  %22 = sext i8 %21 to i32
  %23 = icmp eq i32 %22, 10
  br i1 %23, label %24, label %25

24:                                               ; preds = %14
  br label %26

25:                                               ; preds = %14
  br label %14

26:                                               ; preds = %24
  store i32 0, i32* %6, align 4
  br label %27

27:                                               ; preds = %66, %26
  %28 = load i32, i32* %6, align 4
  %29 = load i32, i32* %3, align 4
  %30 = icmp slt i32 %28, %29
  br i1 %30, label %31, label %69

31:                                               ; preds = %27
  store i32 0, i32* %7, align 4
  br label %32

32:                                               ; preds = %62, %31
  %33 = load i32, i32* %7, align 4
  %34 = load i32, i32* %3, align 4
  %35 = icmp slt i32 %33, %34
  br i1 %35, label %36, label %65

36:                                               ; preds = %32
  %37 = load i32, i32* %6, align 4
  %38 = sext i32 %37 to i64
  %39 = getelementptr inbounds [100 x i32], [100 x i32]* %2, i64 0, i64 %38
  %40 = load i32, i32* %39, align 4
  %41 = load i32, i32* %7, align 4
  %42 = sext i32 %41 to i64
  %43 = getelementptr inbounds [100 x i32], [100 x i32]* %2, i64 0, i64 %42
  %44 = load i32, i32* %43, align 4
  %45 = mul nsw i32 2, %44
  %46 = icmp eq i32 %40, %45
  br i1 %46, label %58, label %47

47:                                               ; preds = %36
  %48 = load i32, i32* %6, align 4
  %49 = sext i32 %48 to i64
  %50 = getelementptr inbounds [100 x i32], [100 x i32]* %2, i64 0, i64 %49
  %51 = load i32, i32* %50, align 4
  %52 = mul nsw i32 2, %51
  %53 = load i32, i32* %7, align 4
  %54 = sext i32 %53 to i64
  %55 = getelementptr inbounds [100 x i32], [100 x i32]* %2, i64 0, i64 %54
  %56 = load i32, i32* %55, align 4
  %57 = icmp eq i32 %52, %56
  br i1 %57, label %58, label %61

58:                                               ; preds = %47, %36
  %59 = load i32, i32* %4, align 4
  %60 = add nsw i32 %59, 1
  store i32 %60, i32* %4, align 4
  br label %61

61:                                               ; preds = %58, %47
  br label %62

62:                                               ; preds = %61
  %63 = load i32, i32* %7, align 4
  %64 = add nsw i32 %63, 1
  store i32 %64, i32* %7, align 4
  br label %32

65:                                               ; preds = %32
  br label %66

66:                                               ; preds = %65
  %67 = load i32, i32* %6, align 4
  %68 = add nsw i32 %67, 1
  store i32 %68, i32* %6, align 4
  br label %27

69:                                               ; preds = %27
  %70 = getelementptr inbounds [100 x i32], [100 x i32]* %2, i64 0, i64 0
  %71 = load i32, i32* %70, align 16
  %72 = icmp eq i32 %71, -1
  br i1 %72, label %73, label %74

73:                                               ; preds = %69
  store i32 0, i32* %1, align 4
  br label %81

74:                                               ; preds = %69
  %75 = load i32, i32* %4, align 4
  %76 = sub nsw i32 %75, 1
  %77 = sdiv i32 %76, 2
  %78 = call i32 (i8*, ...) @printf(i8* getelementptr inbounds ([4 x i8], [4 x i8]* @.str.2, i64 0, i64 0), i32 %77)
  br label %79

79:                                               ; preds = %74
  store i32 0, i32* %4, align 4
  store i32 0, i32* %3, align 4
  br label %9

80:                                               ; preds = %9
  store i32 0, i32* %1, align 4
  br label %81

81:                                               ; preds = %80, %73
  %82 = load i32, i32* %1, align 4
  ret i32 %82
}

; Function Attrs: argmemonly nounwind willreturn
declare void @llvm.memset.p0i8.i64(i8* nocapture writeonly, i8, i64, i1 immarg) #1

declare dso_local i32 @__isoc99_scanf(i8*, ...) #2

declare dso_local i32 @printf(i8*, ...) #2


!llvm.module.flags = !{!0}
!llvm.ident = !{!1}

!0 = !{i32 1, !"wchar_size", i32 4}
!1 = !{!"clang version 10.0.0-4ubuntu1 "}
